target datalayout = "e-m:e-p270:32:32-p271:32:32-p272:64:64-i64:64-i128:128-f80:128-n8:16:32:64-S128"
target triple = "x86_64-pc-linux-gnu"

%struct.nghttp2_frame_hd = type { i64, i32, i8, i8, i8 }
%struct.nghttp2_extension = type { %struct.nghttp2_frame_hd, ptr }
%struct.nghttp2_origin_entry = type { ptr, i64 }
%struct.nghttp2_ext_origin = type { i64, ptr }
%struct.nghttp2_bufs = type { ptr, ptr, ptr, i64, i64, i64, i64, i64 }
%struct.nghttp2_buf_chain = type { ptr, %struct.nghttp2_buf }
%struct.nghttp2_buf = type { ptr, ptr, ptr, ptr, ptr }

@.str.1 = private unnamed_addr constant [113 x i8] c"generated/home/dtcxzyw/WorkSpace/Projects/compilers/llvm-opt-benchmark/bench/nghttp2/nghttp2/lib/nghttp2_frame.c\00", align 1
@.str.7 = private unnamed_addr constant [63 x i8] c"nghttp2_buf_len(buf) == NGHTTP2_FRAME_HDLEN + frame->hd.length\00", align 1
@__PRETTY_FUNCTION__.nghttp2_frame_pack_origin = private unnamed_addr constant [67 x i8] c"int nghttp2_frame_pack_origin(nghttp2_bufs *, nghttp2_extension *)\00", align 1

; Function Attrs: nounwind uwtable
define hidden void @nghttp2_frame_pack_frame_hd(ptr noundef %0, ptr noundef %1) #0 {
  %3 = alloca ptr, align 8
  %4 = alloca ptr, align 8
  store ptr %0, ptr %3, align 8, !tbaa !3
  store ptr %1, ptr %4, align 8, !tbaa !8
  %5 = load ptr, ptr %3, align 8, !tbaa !3
  %6 = getelementptr inbounds i8, ptr %5, i64 0
  %7 = load ptr, ptr %4, align 8, !tbaa !8
  %8 = getelementptr inbounds nuw %struct.nghttp2_frame_hd, ptr %7, i32 0, i32 0
  %9 = load i64, ptr %8, align 8, !tbaa !9
  %10 = shl i64 %9, 8
  %11 = trunc i64 %10 to i32
  call void @nghttp2_put_uint32be(ptr noundef %6, i32 noundef %11)
  %12 = load ptr, ptr %4, align 8, !tbaa !8
  %13 = getelementptr inbounds nuw %struct.nghttp2_frame_hd, ptr %12, i32 0, i32 2
  %14 = load i8, ptr %13, align 4, !tbaa !13
  %15 = load ptr, ptr %3, align 8, !tbaa !3
  %16 = getelementptr inbounds i8, ptr %15, i64 3
  store i8 %14, ptr %16, align 1, !tbaa !14
  %17 = load ptr, ptr %4, align 8, !tbaa !8
  %18 = getelementptr inbounds nuw %struct.nghttp2_frame_hd, ptr %17, i32 0, i32 3
  %19 = load i8, ptr %18, align 1, !tbaa !15
  %20 = load ptr, ptr %3, align 8, !tbaa !3
  %21 = getelementptr inbounds i8, ptr %20, i64 4
  store i8 %19, ptr %21, align 1, !tbaa !14
  %22 = load ptr, ptr %3, align 8, !tbaa !3
  %23 = getelementptr inbounds i8, ptr %22, i64 5
  %24 = load ptr, ptr %4, align 8, !tbaa !8
  %25 = getelementptr inbounds nuw %struct.nghttp2_frame_hd, ptr %24, i32 0, i32 1
  %26 = load i32, ptr %25, align 8, !tbaa !16
  call void @nghttp2_put_uint32be(ptr noundef %23, i32 noundef %26)
  ret void
}

; Function Attrs: nounwind uwtable
define hidden i32 @nghttp2_frame_pack_origin(ptr noundef %0, ptr noundef %1) #0 {
  %3 = alloca i32, align 4
  %4 = alloca ptr, align 8
  %5 = alloca ptr, align 8
  %6 = alloca ptr, align 8
  %7 = alloca ptr, align 8
  %8 = alloca ptr, align 8
  %9 = alloca i64, align 8
  %10 = alloca i32, align 4
  store ptr %0, ptr %4, align 8, !tbaa !8
  store ptr %1, ptr %5, align 8, !tbaa !8
  call void @llvm.lifetime.start.p0(i64 8, ptr %6) #7
  call void @llvm.lifetime.start.p0(i64 8, ptr %7) #7
  call void @llvm.lifetime.start.p0(i64 8, ptr %8) #7
  call void @llvm.lifetime.start.p0(i64 8, ptr %9) #7
  %11 = load ptr, ptr %5, align 8, !tbaa !8
  %12 = getelementptr inbounds nuw %struct.nghttp2_extension, ptr %11, i32 0, i32 1
  %13 = load ptr, ptr %12, align 8, !tbaa !49
  store ptr %13, ptr %7, align 8, !tbaa !8
  %14 = load ptr, ptr %4, align 8, !tbaa !8
  %15 = getelementptr inbounds nuw %struct.nghttp2_bufs, ptr %14, i32 0, i32 0
  %16 = load ptr, ptr %15, align 8, !tbaa !70
  %17 = getelementptr inbounds nuw %struct.nghttp2_buf_chain, ptr %16, i32 0, i32 1
  store ptr %17, ptr %6, align 8, !tbaa !8
  %18 = load ptr, ptr %6, align 8, !tbaa !8
  %19 = getelementptr inbounds nuw %struct.nghttp2_buf, ptr %18, i32 0, i32 1
  %20 = load ptr, ptr %19, align 8, !tbaa !86
  %21 = load ptr, ptr %6, align 8, !tbaa !8
  %22 = getelementptr inbounds nuw %struct.nghttp2_buf, ptr %21, i32 0, i32 3
  %23 = load ptr, ptr %22, align 8, !tbaa !76
  %24 = ptrtoint ptr %20 to i64
  %25 = ptrtoint ptr %23 to i64
  %26 = sub i64 %24, %25
  %27 = load ptr, ptr %5, align 8, !tbaa !8
  %28 = getelementptr inbounds nuw %struct.nghttp2_extension, ptr %27, i32 0, i32 0
  %29 = getelementptr inbounds nuw %struct.nghttp2_frame_hd, ptr %28, i32 0, i32 0
  %30 = load i64, ptr %29, align 8, !tbaa !98
  %31 = icmp ult i64 %26, %30
  br i1 %31, label %32, label %33

32:                                               ; preds = %2
  store i32 -522, ptr %3, align 4
  store i32 1, ptr %10, align 4
  br label %100

33:                                               ; preds = %2
  %34 = load ptr, ptr %6, align 8, !tbaa !8
  %35 = getelementptr inbounds nuw %struct.nghttp2_buf, ptr %34, i32 0, i32 2
  %36 = load ptr, ptr %35, align 8, !tbaa !74
  %37 = getelementptr inbounds i8, ptr %36, i64 -9
  store ptr %37, ptr %35, align 8, !tbaa !74
  %38 = load ptr, ptr %6, align 8, !tbaa !8
  %39 = getelementptr inbounds nuw %struct.nghttp2_buf, ptr %38, i32 0, i32 2
  %40 = load ptr, ptr %39, align 8, !tbaa !74
  %41 = load ptr, ptr %5, align 8, !tbaa !8
  %42 = getelementptr inbounds nuw %struct.nghttp2_extension, ptr %41, i32 0, i32 0
  call void @nghttp2_frame_pack_frame_hd(ptr noundef %40, ptr noundef %42)
  store i64 0, ptr %9, align 8, !tbaa !18
  br label %43

43:                                               ; preds = %78, %33
  %44 = load i64, ptr %9, align 8, !tbaa !18
  %45 = load ptr, ptr %7, align 8, !tbaa !8
  %46 = getelementptr inbounds nuw %struct.nghttp2_ext_origin, ptr %45, i32 0, i32 0
  %47 = load i64, ptr %46, align 8, !tbaa !62
  %48 = icmp ult i64 %44, %47
  br i1 %48, label %49, label %81

49:                                               ; preds = %43
  %50 = load ptr, ptr %7, align 8, !tbaa !8
  %51 = getelementptr inbounds nuw %struct.nghttp2_ext_origin, ptr %50, i32 0, i32 1
  %52 = load ptr, ptr %51, align 8, !tbaa !60
  %53 = load i64, ptr %9, align 8, !tbaa !18
  %54 = getelementptr inbounds nuw %struct.nghttp2_origin_entry, ptr %52, i64 %53
  store ptr %54, ptr %8, align 8, !tbaa !8
  %55 = load ptr, ptr %6, align 8, !tbaa !8
  %56 = getelementptr inbounds nuw %struct.nghttp2_buf, ptr %55, i32 0, i32 3
  %57 = load ptr, ptr %56, align 8, !tbaa !76
  %58 = load ptr, ptr %8, align 8, !tbaa !8
  %59 = getelementptr inbounds nuw %struct.nghttp2_origin_entry, ptr %58, i32 0, i32 1
  %60 = load i64, ptr %59, align 8, !tbaa !56
  %61 = trunc i64 %60 to i16
  call void @nghttp2_put_uint16be(ptr noundef %57, i16 noundef zeroext %61)
  %62 = load ptr, ptr %6, align 8, !tbaa !8
  %63 = getelementptr inbounds nuw %struct.nghttp2_buf, ptr %62, i32 0, i32 3
  %64 = load ptr, ptr %63, align 8, !tbaa !76
  %65 = getelementptr inbounds i8, ptr %64, i64 2
  store ptr %65, ptr %63, align 8, !tbaa !76
  %66 = load ptr, ptr %6, align 8, !tbaa !8
  %67 = getelementptr inbounds nuw %struct.nghttp2_buf, ptr %66, i32 0, i32 3
  %68 = load ptr, ptr %67, align 8, !tbaa !76
  %69 = load ptr, ptr %8, align 8, !tbaa !8
  %70 = getelementptr inbounds nuw %struct.nghttp2_origin_entry, ptr %69, i32 0, i32 0
  %71 = load ptr, ptr %70, align 8, !tbaa !99
  %72 = load ptr, ptr %8, align 8, !tbaa !8
  %73 = getelementptr inbounds nuw %struct.nghttp2_origin_entry, ptr %72, i32 0, i32 1
  %74 = load i64, ptr %73, align 8, !tbaa !56
  %75 = call ptr @nghttp2_cpymem(ptr noundef %68, ptr noundef %71, i64 noundef %74)
  %76 = load ptr, ptr %6, align 8, !tbaa !8
  %77 = getelementptr inbounds nuw %struct.nghttp2_buf, ptr %76, i32 0, i32 3
  store ptr %75, ptr %77, align 8, !tbaa !76
  br label %78

78:                                               ; preds = %49
  %79 = load i64, ptr %9, align 8, !tbaa !18
  %80 = add i64 %79, 1
  store i64 %80, ptr %9, align 8, !tbaa !18
  br label %43, !llvm.loop !100

81:                                               ; preds = %43
  %82 = load ptr, ptr %6, align 8, !tbaa !8
  %83 = getelementptr inbounds nuw %struct.nghttp2_buf, ptr %82, i32 0, i32 3
  %84 = load ptr, ptr %83, align 8, !tbaa !76
  %85 = load ptr, ptr %6, align 8, !tbaa !8
  %86 = getelementptr inbounds nuw %struct.nghttp2_buf, ptr %85, i32 0, i32 2
  %87 = load ptr, ptr %86, align 8, !tbaa !74
  %88 = ptrtoint ptr %84 to i64
  %89 = ptrtoint ptr %87 to i64
  %90 = sub i64 %88, %89
  %91 = load ptr, ptr %5, align 8, !tbaa !8
  %92 = getelementptr inbounds nuw %struct.nghttp2_extension, ptr %91, i32 0, i32 0
  %93 = getelementptr inbounds nuw %struct.nghttp2_frame_hd, ptr %92, i32 0, i32 0
  %94 = load i64, ptr %93, align 8, !tbaa !98
  %95 = add i64 9, %94
  %96 = icmp eq i64 %90, %95
  br i1 %96, label %97, label %98

97:                                               ; preds = %81
  br label %99

98:                                               ; preds = %81
  call void @__assert_fail(ptr noundef @.str.7, ptr noundef @.str.1, i32 noundef 814, ptr noundef @__PRETTY_FUNCTION__.nghttp2_frame_pack_origin) #8
  unreachable

99:                                               ; preds = %97
  store i32 0, ptr %3, align 4
  store i32 1, ptr %10, align 4
  br label %100

100:                                              ; preds = %99, %32
  call void @llvm.lifetime.end.p0(i64 8, ptr %9) #7
  call void @llvm.lifetime.end.p0(i64 8, ptr %8) #7
  call void @llvm.lifetime.end.p0(i64 8, ptr %7) #7
  call void @llvm.lifetime.end.p0(i64 8, ptr %6) #7
  %101 = load i32, ptr %3, align 4
  ret i32 %101
}