; Function Attrs: nounwind uwtable
define hidden range(i32 -522, 1) i32 @nghttp2_frame_pack_origin(ptr noundef readonly captures(none) %0, ptr noundef readonly captures(none) %1) local_unnamed_addr #0 {
  %3 = getelementptr inbounds nuw i8, ptr %1, i64 16
  %4 = load ptr, ptr %3, align 8, !tbaa !46
  %5 = load ptr, ptr %0, align 8, !tbaa !65
  %6 = getelementptr inbounds nuw i8, ptr %5, i64 16
  %7 = load ptr, ptr %6, align 8, !tbaa !79
  %8 = getelementptr inbounds nuw i8, ptr %5, i64 32
  %9 = load ptr, ptr %8, align 8, !tbaa !71
  %10 = ptrtoint ptr %7 to i64
  %11 = ptrtoint ptr %9 to i64
  %12 = sub i64 %10, %11
  %13 = load i64, ptr %1, align 8, !tbaa !89
  %14 = icmp ult i64 %12, %13
  br i1 %14, label %55, label %15

15:                                               ; preds = %2
  %16 = getelementptr inbounds nuw i8, ptr %5, i64 24
  %17 = load ptr, ptr %16, align 8, !tbaa !69
  %18 = getelementptr inbounds i8, ptr %17, i64 -9
  store ptr %18, ptr %16, align 8, !tbaa !69
  %.tr.i = trunc i64 %13 to i32
  %19 = shl i32 %.tr.i, 8
  tail call void @nghttp2_put_uint32be(ptr noundef nonnull %18, i32 noundef %19) #18
  %20 = getelementptr inbounds nuw i8, ptr %1, i64 12
  %21 = load i8, ptr %20, align 4, !tbaa !9
  %22 = getelementptr inbounds i8, ptr %17, i64 -6
  store i8 %21, ptr %22, align 1, !tbaa !10
  %23 = getelementptr inbounds nuw i8, ptr %1, i64 13
  %24 = load i8, ptr %23, align 1, !tbaa !11
  %25 = getelementptr inbounds i8, ptr %17, i64 -5
  store i8 %24, ptr %25, align 1, !tbaa !10
  %26 = getelementptr inbounds i8, ptr %17, i64 -4
  %27 = getelementptr inbounds nuw i8, ptr %1, i64 8
  %28 = load i32, ptr %27, align 8, !tbaa !12
  tail call void @nghttp2_put_uint32be(ptr noundef nonnull %26, i32 noundef %28) #18
  %29 = load i64, ptr %4, align 8, !tbaa !59
  %.not = icmp eq i64 %29, 0
  %.pre25 = load ptr, ptr %8, align 8, !tbaa !71
  br i1 %.not, label %._crit_edge, label %.lr.ph

.lr.ph:                                           ; preds = %15
  %30 = getelementptr inbounds nuw i8, ptr %4, i64 8
  br label %31

31:                                               ; preds = %.lr.ph, %31
  %32 = phi ptr [ %.pre25, %.lr.ph ], [ %42, %31 ]
  %.024 = phi i64 [ 0, %.lr.ph ], [ %43, %31 ]
  %33 = load ptr, ptr %30, align 8, !tbaa !57
  %34 = getelementptr inbounds nuw %struct.nghttp2_origin_entry, ptr %33, i64 %.024
  %35 = getelementptr inbounds nuw i8, ptr %34, i64 8
  %36 = load i64, ptr %35, align 8, !tbaa !53
  %37 = trunc i64 %36 to i16
  tail call void @nghttp2_put_uint16be(ptr noundef %32, i16 noundef zeroext %37) #18
  %38 = load ptr, ptr %8, align 8, !tbaa !71
  %39 = getelementptr inbounds nuw i8, ptr %38, i64 2
  store ptr %39, ptr %8, align 8, !tbaa !71
  %40 = load ptr, ptr %34, align 8, !tbaa !90
  %41 = load i64, ptr %35, align 8, !tbaa !53
  %42 = tail call ptr @nghttp2_cpymem(ptr noundef nonnull %39, ptr noundef %40, i64 noundef %41) #18
  store ptr %42, ptr %8, align 8, !tbaa !71
  %43 = add nuw i64 %.024, 1
  %44 = load i64, ptr %4, align 8, !tbaa !59
  %45 = icmp ult i64 %43, %44
  br i1 %45, label %31, label %._crit_edge, !llvm.loop !91

._crit_edge:                                      ; preds = %31, %15
  %46 = phi ptr [ %.pre25, %15 ], [ %42, %31 ]
  %47 = load ptr, ptr %16, align 8, !tbaa !69
  %48 = ptrtoint ptr %46 to i64
  %49 = ptrtoint ptr %47 to i64
  %50 = sub i64 %48, %49
  %51 = load i64, ptr %1, align 8, !tbaa !89
  %52 = add i64 %51, 9
  %53 = icmp eq i64 %50, %52
  br i1 %53, label %55, label %54

54:                                               ; preds = %._crit_edge
  tail call void @__assert_fail(ptr noundef nonnull @.str.7, ptr noundef nonnull @.str.1, i32 noundef 814, ptr noundef nonnull @__PRETTY_FUNCTION__.nghttp2_frame_pack_origin) #19
  unreachable

55:                                               ; preds = %._crit_edge, %2
  %.023 = phi i32 [ -522, %2 ], [ 0, %._crit_edge ]
  ret i32 %.023
}